target datalayout = "e-m:e-p270:32:32-p271:32:32-p272:64:64-i64:64-i128:128-f80:128-n8:16:32:64-S128"
target triple = "x86_64-pc-linux-gnu"

%struct.FT_ServiceDescRec_ = type { ptr, ptr }

; Function Attrs: nounwind uwtable
define hidden ptr @ft_service_list_lookup(ptr noundef %0, ptr noundef %1) #0 {
  %3 = alloca ptr, align 8
  %4 = alloca ptr, align 8
  %5 = alloca ptr, align 8
  %6 = alloca ptr, align 8
  store ptr %0, ptr %3, align 8, !tbaa !249
  store ptr %1, ptr %4, align 8, !tbaa !183
  call void @llvm.lifetime.start.p0(i64 8, ptr %5) #10
  store ptr null, ptr %5, align 8, !tbaa !41
  call void @llvm.lifetime.start.p0(i64 8, ptr %6) #10
  %7 = load ptr, ptr %3, align 8, !tbaa !249
  store ptr %7, ptr %6, align 8, !tbaa !249
  %8 = load ptr, ptr %6, align 8, !tbaa !249
  %9 = icmp ne ptr %8, null
  br i1 %9, label %10, label %35

10:                                               ; preds = %2
  %11 = load ptr, ptr %4, align 8, !tbaa !183
  %12 = icmp ne ptr %11, null
  br i1 %12, label %13, label %35

13:                                               ; preds = %10
  br label %14

14:                                               ; preds = %31, %13
  %15 = load ptr, ptr %6, align 8, !tbaa !249
  %16 = getelementptr inbounds nuw %struct.FT_ServiceDescRec_, ptr %15, i32 0, i32 0
  %17 = load ptr, ptr %16, align 8, !tbaa !251
  %18 = icmp ne ptr %17, null
  br i1 %18, label %19, label %34

19:                                               ; preds = %14
  %20 = load ptr, ptr %6, align 8, !tbaa !249
  %21 = getelementptr inbounds nuw %struct.FT_ServiceDescRec_, ptr %20, i32 0, i32 0
  %22 = load ptr, ptr %21, align 8, !tbaa !251
  %23 = load ptr, ptr %4, align 8, !tbaa !183
  %24 = call i32 @strcmp(ptr noundef %22, ptr noundef %23) #11
  %25 = icmp eq i32 %24, 0
  br i1 %25, label %26, label %30

26:                                               ; preds = %19
  %27 = load ptr, ptr %6, align 8, !tbaa !249
  %28 = getelementptr inbounds nuw %struct.FT_ServiceDescRec_, ptr %27, i32 0, i32 1
  %29 = load ptr, ptr %28, align 8, !tbaa !253
  store ptr %29, ptr %5, align 8, !tbaa !41
  br label %34

30:                                               ; preds = %19
  br label %31

31:                                               ; preds = %30
  %32 = load ptr, ptr %6, align 8, !tbaa !249
  %33 = getelementptr inbounds nuw %struct.FT_ServiceDescRec_, ptr %32, i32 1
  store ptr %33, ptr %6, align 8, !tbaa !249
  br label %14, !llvm.loop !254

34:                                               ; preds = %26, %14
  br label %35

35:                                               ; preds = %34, %10, %2
  %36 = load ptr, ptr %5, align 8, !tbaa !41
  call void @llvm.lifetime.end.p0(i64 8, ptr %6) #10
  call void @llvm.lifetime.end.p0(i64 8, ptr %5) #10
  ret ptr %36
}