; Function Attrs: nofree nounwind memory(read, inaccessiblemem: none) uwtable
define hidden ptr @ft_service_list_lookup(ptr noundef readonly %0, ptr noundef readonly %1) local_unnamed_addr #13 {
  %3 = icmp ne ptr %0, null
  %4 = icmp ne ptr %1, null
  %or.cond = and i1 %3, %4
  br i1 %or.cond, label %.preheader, label %.loopexit

.preheader:                                       ; preds = %2
  %5 = load ptr, ptr %0, align 8, !tbaa !231
  %.not14 = icmp eq ptr %5, null
  br i1 %.not14, label %.loopexit, label %.lr.ph

.lr.ph:                                           ; preds = %.preheader, %12
  %6 = phi ptr [ %14, %12 ], [ %5, %.preheader ]
  %.015 = phi ptr [ %13, %12 ], [ %0, %.preheader ]
  %7 = tail call i32 @strcmp(ptr noundef nonnull dereferenceable(1) %6, ptr noundef nonnull dereferenceable(1) %1) #35
  %8 = icmp eq i32 %7, 0
  br i1 %8, label %9, label %12

9:                                                ; preds = %.lr.ph
  %10 = getelementptr inbounds nuw i8, ptr %.015, i64 8
  %11 = load ptr, ptr %10, align 8, !tbaa !233
  br label %.loopexit

12:                                               ; preds = %.lr.ph
  %13 = getelementptr inbounds nuw i8, ptr %.015, i64 16
  %14 = load ptr, ptr %13, align 8, !tbaa !231
  %.not = icmp eq ptr %14, null
  br i1 %.not, label %.loopexit, label %.lr.ph, !llvm.loop !234

.loopexit:                                        ; preds = %12, %.preheader, %9, %2
  %.010 = phi ptr [ %11, %9 ], [ null, %2 ], [ null, %.preheader ], [ null, %12 ]
  ret ptr %.010
}